; Function Attrs: mustprogress uwtable
define hidden void @_ZN7datalog12rule_manager9check_appEP4expr(ptr nocapture noundef nonnull readonly align 8 dereferenceable(1368) %this, ptr noundef %e) local_unnamed_addr #3 align 2 personality ptr @__gxx_personality_v0 {
entry:
  %out = alloca %"class.std::__cxx11::basic_ostringstream", align 8
  %ref.tmp = alloca %struct.mk_pp, align 8
  %ref.tmp7 = alloca %"class.std::__cxx11::basic_string", align 8
  %m_kind.i.i = getelementptr inbounds i8, ptr %e, i64 4
  %bf.load.i.i = load i32, ptr %m_kind.i.i, align 4
  %bf.clear.i.i = and i32 %bf.load.i.i, 65535
  %cmp.i = icmp eq i32 %bf.clear.i.i, 0
  br i1 %cmp.i, label %if.end, label %if.then

if.then:                                          ; preds = %entry
  call void @_ZNSt7__cxx1119basic_ostringstreamIcSt11char_traitsIcESaIcEEC1Ev(ptr noundef nonnull align 8 dereferenceable(112) %out)
  %call2 = invoke noundef nonnull align 8 dereferenceable(8) ptr @_ZStlsISt11char_traitsIcEERSt13basic_ostreamIcT_ES5_PKc(ptr noundef nonnull align 8 dereferenceable(8) %out, ptr noundef nonnull @.str.3)
          to label %invoke.cont unwind label %lpad

invoke.cont:                                      ; preds = %if.then
  %0 = load ptr, ptr %this, align 8
  invoke void @_ZN11mk_ismt2_ppC2EP3astR11ast_managerjjPKc(ptr noundef nonnull align 8 dereferenceable(48) %ref.tmp, ptr noundef nonnull %e, ptr noundef nonnull align 8 dereferenceable(976) %0, i32 noundef 0, i32 noundef 0, ptr noundef null)
          to label %invoke.cont3 unwind label %lpad

invoke.cont3:                                     ; preds = %invoke.cont
  %call6 = invoke noundef nonnull align 8 dereferenceable(8) ptr @_ZlsRSoRK11mk_ismt2_pp(ptr noundef nonnull align 8 dereferenceable(8) %call2, ptr noundef nonnull align 8 dereferenceable(48) %ref.tmp)
          to label %invoke.cont5 unwind label %lpad4

invoke.cont5:                                     ; preds = %invoke.cont3
  %m_empty.i.i = getelementptr inbounds i8, ptr %ref.tmp, i64 16
  call void @_ZN10params_refD1Ev(ptr noundef nonnull align 8 dereferenceable(8) %m_empty.i.i) #20
  %exception = call ptr @__cxa_allocate_exception(i64 40) #20
  invoke void @_ZNKSt7__cxx1119basic_ostringstreamIcSt11char_traitsIcESaIcEE3strEv(ptr nonnull sret(%"class.std::__cxx11::basic_string") align 8 %ref.tmp7, ptr noundef nonnull align 8 dereferenceable(112) %out)
          to label %invoke.cont9 unwind label %cleanup.action

invoke.cont9:                                     ; preds = %invoke.cont5
  store ptr getelementptr inbounds ({ [6 x ptr] }, ptr @_ZTV17default_exception, i64 0, i32 0, i64 2), ptr %exception, align 8
  %m_msg.i = getelementptr inbounds i8, ptr %exception, i64 8
  call void @_ZNSt7__cxx1112basic_stringIcSt11char_traitsIcESaIcEEC1EOS4_(ptr noundef nonnull align 8 dereferenceable(32) %m_msg.i, ptr noundef nonnull align 8 dereferenceable(32) %ref.tmp7) #20
  invoke void @__cxa_throw(ptr nonnull %exception, ptr nonnull @_ZTI17default_exception, ptr nonnull @_ZN17default_exceptionD2Ev) #22
          to label %unreachable unwind label %ehcleanup

lpad:                                             ; preds = %invoke.cont, %if.then
  %1 = landingpad { ptr, i32 }
          cleanup
  br label %ehcleanup12

lpad4:                                            ; preds = %invoke.cont3
  %2 = landingpad { ptr, i32 }
          cleanup
  %m_empty.i.i4 = getelementptr inbounds i8, ptr %ref.tmp, i64 16
  call void @_ZN10params_refD1Ev(ptr noundef nonnull align 8 dereferenceable(8) %m_empty.i.i4) #20
  br label %ehcleanup12

ehcleanup:                                        ; preds = %invoke.cont9
  %3 = landingpad { ptr, i32 }
          cleanup
  call void @_ZNSt7__cxx1112basic_stringIcSt11char_traitsIcESaIcEED1Ev(ptr noundef nonnull align 8 dereferenceable(32) %ref.tmp7) #20
  br label %ehcleanup12

cleanup.action:                                   ; preds = %invoke.cont5
  %4 = landingpad { ptr, i32 }
          cleanup
  call void @__cxa_free_exception(ptr %exception) #20
  br label %ehcleanup12

ehcleanup12:                                      ; preds = %ehcleanup, %cleanup.action, %lpad4, %lpad
  %.pn.pn = phi { ptr, i32 } [ %4, %cleanup.action ], [ %3, %ehcleanup ], [ %2, %lpad4 ], [ %1, %lpad ]
  call void @_ZNSt7__cxx1119basic_ostringstreamIcSt11char_traitsIcESaIcEED1Ev(ptr noundef nonnull align 8 dereferenceable(112) %out) #20
  resume { ptr, i32 } %.pn.pn

if.end:                                           ; preds = %entry
  ret void

unreachable:                                      ; preds = %invoke.cont9
  unreachable
}